target datalayout = "e-m:e-p270:32:32-p271:32:32-p272:64:64-i64:64-i128:128-f80:128-n8:16:32:64-S128"
target triple = "x86_64-pc-linux-gnu"

@proto_register_hislip.ett = internal global [2 x ptr] [ptr @ett_hislip, ptr @ett_hislip_msgpara], align 16
@.str.84 = private unnamed_addr constant [35 x i8] c"High-Speed LAN Instrument Protocol\00", align 1
@.str.85 = private unnamed_addr constant [7 x i8] c"HiSLIP\00", align 1
@.str.86 = private unnamed_addr constant [7 x i8] c"hislip\00", align 1
@proto_hislip = internal global i32 0, align 4
@.str.87 = private unnamed_addr constant [17 x i8] c"enable_heuristic\00", align 1
@hislip_handle = internal global ptr null, align 8

; Function Attrs: null_pointer_is_valid sspstrong uwtable
define hidden void @proto_register_hislip() #0 {
  %1 = alloca ptr, align 8
  %2 = alloca ptr, align 8
  call void @llvm.lifetime.start.p0(i64 8, ptr %1) #9
  call void @llvm.lifetime.start.p0(i64 8, ptr %2) #9
  %3 = call i32 @proto_register_protocol(ptr noundef @.str.84, ptr noundef @.str.85, ptr noundef @.str.86)
  store i32 %3, ptr @proto_hislip, align 4
  %4 = load i32, ptr @proto_hislip, align 4
  %5 = call ptr @expert_register_protocol(i32 noundef %4)
  store ptr %5, ptr %1, align 8
  %6 = load ptr, ptr %1, align 8
  call void @expert_register_field_array(ptr noundef %6, ptr noundef @proto_register_hislip.ei, i32 noundef 2)
  %7 = load i32, ptr @proto_hislip, align 4
  call void @proto_register_field_array(i32 noundef %7, ptr noundef @proto_register_hislip.hf, i32 noundef 30)
  call void @proto_register_subtree_array(ptr noundef @proto_register_hislip.ett, i32 noundef 2)
  %8 = load i32, ptr @proto_hislip, align 4
  %9 = call ptr @prefs_register_protocol(i32 noundef %8, ptr noundef null)
  store ptr %9, ptr %2, align 8
  %10 = load ptr, ptr %2, align 8
  call void @prefs_register_obsolete_preference(ptr noundef %10, ptr noundef @.str.87)
  %11 = load i32, ptr @proto_hislip, align 4
  %12 = call ptr @register_dissector(ptr noundef @.str.86, ptr noundef @dissect_hislip, i32 noundef %11)
  store ptr %12, ptr @hislip_handle, align 8
  call void @llvm.lifetime.end.p0(i64 8, ptr %2) #9
  call void @llvm.lifetime.end.p0(i64 8, ptr %1) #9
  ret void
}