; Function Attrs: null_pointer_is_valid sspstrong uwtable
define hidden void @proto_register_hislip() local_unnamed_addr #0 {
  %1 = tail call i32 @proto_register_protocol(ptr noundef nonnull @.str.84, ptr noundef nonnull @.str.85, ptr noundef nonnull @.str.86)
  store i32 %1, ptr @proto_hislip, align 4
  %2 = tail call ptr @expert_register_protocol(i32 noundef %1)
  tail call void @expert_register_field_array(ptr noundef %2, ptr noundef nonnull @proto_register_hislip.ei, i32 noundef 2)
  %3 = load i32, ptr @proto_hislip, align 4
  tail call void @proto_register_field_array(i32 noundef %3, ptr noundef nonnull @proto_register_hislip.hf, i32 noundef 30)
  tail call void @proto_register_subtree_array(ptr noundef nonnull @proto_register_hislip.ett, i32 noundef 2)
  %4 = load i32, ptr @proto_hislip, align 4
  %5 = tail call ptr @prefs_register_protocol(i32 noundef %4, ptr noundef null)
  tail call void @prefs_register_obsolete_preference(ptr noundef %5, ptr noundef nonnull @.str.87)
  %6 = load i32, ptr @proto_hislip, align 4
  %7 = tail call ptr @register_dissector(ptr noundef nonnull @.str.86, ptr noundef nonnull @dissect_hislip, i32 noundef %6)
  store ptr %7, ptr @hislip_handle, align 8
  ret void
}